target datalayout = "e-m:e-p270:32:32-p271:32:32-p272:64:64-i64:64-i128:128-f80:128-n8:16:32:64-S128"
target triple = "x86_64-pc-linux-gnu"

%struct.KINMemRec = type { double, ptr, ptr, double, double, i32, i32, i64, i64, i64, i64, i32, i32, i32, i32, i32, i32, i32, i32, i32, double, double, double, double, double, double, double, double, double, i32, double, i64, i64, i64, i64, i64, i64, i64, ptr, ptr, ptr, ptr, ptr, ptr, ptr, ptr, ptr, ptr, ptr, ptr, ptr, ptr, ptr, ptr, ptr, ptr, i64, i32, i32, i64, i64, i64, i64, ptr, ptr, ptr, ptr, i32, ptr, double, double, double, double, double, i32, double, double, double, i32, ptr, ptr, ptr, ptr, ptr, ptr }

@.str = private unnamed_addr constant [7 x i8] c"KINSOL\00", align 1
@.str.2 = private unnamed_addr constant [27 x i8] c"kinsol_mem = NULL illegal.\00", align 1
@.str.19 = private unnamed_addr constant [14 x i8] c"KINSetEtaForm\00", align 1
@.str.20 = private unnamed_addr constant [29 x i8] c"Illegal value for etachoice.\00", align 1

; Function Attrs: nounwind uwtable
define i32 @KINSetEtaForm(ptr noundef %0, i32 noundef %1) #0 {
  %3 = alloca i32, align 4
  %4 = alloca ptr, align 8
  %5 = alloca i32, align 4
  %6 = alloca ptr, align 8
  store ptr %0, ptr %4, align 8
  store i32 %1, ptr %5, align 4
  %7 = load ptr, ptr %4, align 8
  %8 = icmp eq ptr %7, null
  br i1 %8, label %9, label %10

9:                                                ; preds = %2
  call void (ptr, i32, ptr, ptr, ptr, ...) @KINProcessError(ptr noundef null, i32 noundef -1, ptr noundef @.str, ptr noundef @.str.19, ptr noundef @.str.2)
  store i32 -1, ptr %3, align 4
  br label %25

10:                                               ; preds = %2
  %11 = load ptr, ptr %4, align 8
  store ptr %11, ptr %6, align 8
  %12 = load i32, ptr %5, align 4
  %13 = icmp ne i32 %12, 3
  br i1 %13, label %14, label %21

14:                                               ; preds = %10
  %15 = load i32, ptr %5, align 4
  %16 = icmp ne i32 %15, 1
  br i1 %16, label %17, label %21

17:                                               ; preds = %14
  %18 = load i32, ptr %5, align 4
  %19 = icmp ne i32 %18, 2
  br i1 %19, label %20, label %21

20:                                               ; preds = %17
  call void (ptr, i32, ptr, ptr, ptr, ...) @KINProcessError(ptr noundef null, i32 noundef -2, ptr noundef @.str, ptr noundef @.str.19, ptr noundef @.str.20)
  store i32 -2, ptr %3, align 4
  br label %25

21:                                               ; preds = %17, %14, %10
  %22 = load i32, ptr %5, align 4
  %23 = load ptr, ptr %6, align 8
  %24 = getelementptr inbounds %struct.KINMemRec, ptr %23, i32 0, i32 11
  store i32 %22, ptr %24, align 8
  store i32 0, ptr %3, align 4
  br label %25

25:                                               ; preds = %21, %20, %9
  %26 = load i32, ptr %3, align 4
  ret i32 %26
}