; Function Attrs: nounwind uwtable
define range(i32 -2, 1) i32 @KINSetEtaForm(ptr noundef writeonly %0, i32 noundef %1) local_unnamed_addr #0 {
  %3 = icmp eq ptr %0, null
  br i1 %3, label %4, label %5

4:                                                ; preds = %2
  tail call void (ptr, i32, ptr, ptr, ptr, ...) @KINProcessError(ptr noundef null, i32 noundef -1, ptr noundef nonnull @.str, ptr noundef nonnull @.str.19, ptr noundef nonnull @.str.2) #6
  br label %9

5:                                                ; preds = %2
  %.off = add i32 %1, -1
  %switch = icmp ult i32 %.off, 3
  br i1 %switch, label %7, label %6

6:                                                ; preds = %5
  tail call void (ptr, i32, ptr, ptr, ptr, ...) @KINProcessError(ptr noundef null, i32 noundef -2, ptr noundef nonnull @.str, ptr noundef nonnull @.str.19, ptr noundef nonnull @.str.20) #6
  br label %9

7:                                                ; preds = %5
  %8 = getelementptr inbounds nuw i8, ptr %0, i64 80
  store i32 %1, ptr %8, align 8
  br label %9

9:                                                ; preds = %7, %6, %4
  %.0 = phi i32 [ -1, %4 ], [ -2, %6 ], [ 0, %7 ]
  ret i32 %.0
}